; Function Attrs: nofree norecurse nosync nounwind memory(argmem: write) uwtable
define void @lv_cache_entry_set_invalid(ptr noundef writeonly captures(address_is_null) %0, i1 noundef zeroext %1) local_unnamed_addr #0 {
  %.not = icmp eq ptr %0, null
  br i1 %.not, label %.preheader, label %3

.preheader:                                       ; preds = %2, %.preheader
  br label %.preheader

3:                                                ; preds = %2
  %4 = zext i1 %1 to i8
  %5 = getelementptr inbounds nuw i8, ptr %0, i64 16
  store i8 %4, ptr %5, align 8, !tbaa !12
  ret void
}